target datalayout = "e-m:e-p270:32:32-p271:32:32-p272:64:64-i64:64-i128:128-f80:128-n8:16:32:64-S128"
target triple = "x86_64-pc-linux-gnu"

; Function Attrs: nounwind sspstrong uwtable
define internal i32 @copy_ivar_i(i64 noundef %0, i64 noundef %1, i64 noundef %2) #0 {
  %4 = alloca i64, align 8
  %5 = alloca i64, align 8
  %6 = alloca i64, align 8
  %7 = alloca i64, align 8
  store i64 %0, ptr %4, align 8, !tbaa !7
  store i64 %1, ptr %5, align 8, !tbaa !7
  store i64 %2, ptr %6, align 8, !tbaa !7
  call void @llvm.lifetime.start.p0(i64 8, ptr %7) #23
  %8 = load i64, ptr %6, align 8, !tbaa !7
  store i64 %8, ptr %7, align 8, !tbaa !7
  %9 = load i64, ptr %7, align 8, !tbaa !7
  %10 = load i64, ptr %4, align 8, !tbaa !7
  %11 = call i64 @rb_ivar_defined(i64 noundef %9, i64 noundef %10)
  %12 = icmp ne i64 %11, 0
  br i1 %12, label %18, label %13

13:                                               ; preds = %3
  %14 = load i64, ptr %7, align 8, !tbaa !7
  %15 = load i64, ptr %4, align 8, !tbaa !7
  %16 = load i64, ptr %5, align 8, !tbaa !7
  %17 = call i64 @rb_ivar_set(i64 noundef %14, i64 noundef %15, i64 noundef %16)
  br label %18

18:                                               ; preds = %13, %3
  call void @llvm.lifetime.end.p0(i64 8, ptr %7) #23
  ret i32 0
}