; Function Attrs: nounwind sspstrong uwtable
define internal noundef i32 @copy_ivar_i(i64 noundef %0, i64 noundef %1, i64 noundef %2) #0 {
  %4 = tail call i64 @rb_ivar_defined(i64 noundef %2, i64 noundef %0) #22
  %.not = icmp eq i64 %4, 0
  br i1 %.not, label %5, label %7

5:                                                ; preds = %3
  %6 = tail call i64 @rb_ivar_set(i64 noundef %2, i64 noundef %0, i64 noundef %1) #22
  br label %7

7:                                                ; preds = %5, %3
  ret i32 0
}